; Function Attrs: mustprogress nounwind uwtable
define noundef nonnull align 8 dereferenceable(8) ptr @_ZN5arrow8internal16PlatformFilenameaSEOS1_(ptr noundef nonnull returned align 8 captures(ret: address, provenance) dereferenceable(8) %0, ptr noundef nonnull align 8 captures(none) dereferenceable(8) %1) local_unnamed_addr #5 align 2 personality ptr @__gxx_personality_v0 {
  %3 = load ptr, ptr %1, align 8, !tbaa !40
  store ptr null, ptr %1, align 8, !tbaa !40
  %4 = load ptr, ptr %0, align 8, !tbaa !40
  store ptr %3, ptr %0, align 8, !tbaa !40
  %.not.i.i.i.i = icmp eq ptr %4, null
  br i1 %.not.i.i.i.i, label %_ZNSt10unique_ptrIN5arrow8internal16PlatformFilename4ImplESt14default_deleteIS3_EEaSEOS6_.exit, label %5

5:                                                ; preds = %2
  %6 = load ptr, ptr %4, align 8, !tbaa !11
  %7 = getelementptr inbounds nuw i8, ptr %4, i64 16
  %8 = icmp eq ptr %6, %7
  br i1 %8, label %_ZNKSt7__cxx1112basic_stringIcSt11char_traitsIcESaIcEE11_M_is_localEv.exit.thread.i.i.i.i.i.i.i.i, label %_ZNKSt7__cxx1112basic_stringIcSt11char_traitsIcESaIcEE11_M_is_localEv.exit.i.i.i.i.i.i.i.i

_ZNKSt7__cxx1112basic_stringIcSt11char_traitsIcESaIcEE11_M_is_localEv.exit.thread.i.i.i.i.i.i.i.i: ; preds = %5
  %9 = getelementptr inbounds nuw i8, ptr %4, i64 8
  %10 = load i64, ptr %9, align 8, !tbaa !14
  %11 = icmp ult i64 %10, 16
  tail call void @llvm.assume(i1 %11)
  br label %_ZNKSt14default_deleteIN5arrow8internal16PlatformFilename4ImplEEclEPS3_.exit.i.i.i.i

_ZNKSt7__cxx1112basic_stringIcSt11char_traitsIcESaIcEE11_M_is_localEv.exit.i.i.i.i.i.i.i.i: ; preds = %5
  %12 = load i64, ptr %7, align 8, !tbaa !13
  %13 = add i64 %12, 1
  tail call void @_ZdlPvm(ptr noundef %6, i64 noundef %13) #41
  br label %_ZNKSt14default_deleteIN5arrow8internal16PlatformFilename4ImplEEclEPS3_.exit.i.i.i.i

_ZNKSt14default_deleteIN5arrow8internal16PlatformFilename4ImplEEclEPS3_.exit.i.i.i.i: ; preds = %_ZNKSt7__cxx1112basic_stringIcSt11char_traitsIcESaIcEE11_M_is_localEv.exit.i.i.i.i.i.i.i.i, %_ZNKSt7__cxx1112basic_stringIcSt11char_traitsIcESaIcEE11_M_is_localEv.exit.thread.i.i.i.i.i.i.i.i
  tail call void @_ZdlPvm(ptr noundef nonnull %4, i64 noundef 32) #41
  br label %_ZNSt10unique_ptrIN5arrow8internal16PlatformFilename4ImplESt14default_deleteIS3_EEaSEOS6_.exit

_ZNSt10unique_ptrIN5arrow8internal16PlatformFilename4ImplESt14default_deleteIS3_EEaSEOS6_.exit: ; preds = %2, %_ZNKSt14default_deleteIN5arrow8internal16PlatformFilename4ImplEEclEPS3_.exit.i.i.i.i
  ret ptr %0
}